target datalayout = "e-m:e-p270:32:32-p271:32:32-p272:64:64-i64:64-i128:128-f80:128-n8:16:32:64-S128"
target triple = "x86_64-pc-linux-gnu"

%struct.WOLFSSL_X509_STORE_CTX = type { ptr, ptr, ptr, ptr, ptr, ptr, i32, i32, i32, i32, ptr, ptr, ptr, i32, ptr, ptr, ptr }

@stderr = external global ptr, align 8
@myVerifyAction = internal thread_local global i32 0, align 4
@.str.175 = private unnamed_addr constant [42 x i8] c"In verification callback, error = %d, %s\0A\00", align 1
@.str.176 = private unnamed_addr constant [17 x i8] c"\09Peer certs: %d\0A\00", align 1
@.str.177 = private unnamed_addr constant [36 x i8] c"\09Subject's domain name at %d is %s\0A\00", align 1
@.str.178 = private unnamed_addr constant [61 x i8] c"Overriding cert date error as example for bad clock testing\0A\00", align 1
@.str.179 = private unnamed_addr constant [84 x i8] c"\09Allowing failed certificate check, testing only (shouldn't do this in production)\0A\00", align 1

; Function Attrs: inlinehint nounwind uwtable
define internal i32 @myVerify(i32 noundef %0, ptr noundef %1) #3 {
  %3 = alloca i32, align 4
  %4 = alloca i32, align 4
  %5 = alloca ptr, align 8
  %6 = alloca [80 x i8], align 16
  %7 = alloca i32, align 4
  store i32 %0, ptr %4, align 4, !tbaa !9
  store ptr %1, ptr %5, align 8, !tbaa !67
  call void @llvm.lifetime.start.p0(i64 80, ptr %6) #13
  %8 = load ptr, ptr @stderr, align 8, !tbaa !17
  %9 = load ptr, ptr %5, align 8, !tbaa !67
  %10 = getelementptr inbounds nuw %struct.WOLFSSL_X509_STORE_CTX, ptr %9, i32 0, i32 6
  %11 = load i32, ptr %10, align 8, !tbaa !69
  %12 = load ptr, ptr %5, align 8, !tbaa !67
  %13 = getelementptr inbounds nuw %struct.WOLFSSL_X509_STORE_CTX, ptr %12, i32 0, i32 6
  %14 = load i32, ptr %13, align 8, !tbaa !69
  %15 = sext i32 %14 to i64
  %16 = getelementptr inbounds [80 x i8], ptr %6, i64 0, i64 0
  %17 = call ptr @wolfSSL_ERR_error_string(i64 noundef %15, ptr noundef %16)
  %18 = call i32 (ptr, ptr, ...) @fprintf(ptr noundef %8, ptr noundef @.str.175, i32 noundef %11, ptr noundef %17) #13
  %19 = load ptr, ptr %5, align 8, !tbaa !67
  %20 = getelementptr inbounds nuw %struct.WOLFSSL_X509_STORE_CTX, ptr %19, i32 0, i32 9
  %21 = load i32, ptr %20, align 4, !tbaa !76
  %22 = call i32 (ptr, ...) @printf(ptr noundef @.str.176, i32 noundef %21)
  %23 = load ptr, ptr %5, align 8, !tbaa !67
  %24 = getelementptr inbounds nuw %struct.WOLFSSL_X509_STORE_CTX, ptr %23, i32 0, i32 7
  %25 = load i32, ptr %24, align 4, !tbaa !77
  %26 = load ptr, ptr %5, align 8, !tbaa !67
  %27 = getelementptr inbounds nuw %struct.WOLFSSL_X509_STORE_CTX, ptr %26, i32 0, i32 4
  %28 = load ptr, ptr %27, align 8, !tbaa !78
  %29 = call i32 (ptr, ...) @printf(ptr noundef @.str.177, i32 noundef %25, ptr noundef %28)
  %30 = call align 4 ptr @llvm.threadlocal.address.p0(ptr align 4 @myVerifyAction)
  %31 = load i32, ptr %30, align 4, !tbaa !9
  %32 = icmp eq i32 %31, 1
  br i1 %32, label %33, label %34

33:                                               ; preds = %2
  store i32 0, ptr %3, align 4
  store i32 1, ptr %7, align 4
  br label %70

34:                                               ; preds = %2
  %35 = call align 4 ptr @llvm.threadlocal.address.p0(ptr align 4 @myVerifyAction)
  %36 = load i32, ptr %35, align 4, !tbaa !9
  %37 = icmp eq i32 %36, 3
  br i1 %37, label %38, label %50

38:                                               ; preds = %34
  %39 = load ptr, ptr %5, align 8, !tbaa !67
  %40 = getelementptr inbounds nuw %struct.WOLFSSL_X509_STORE_CTX, ptr %39, i32 0, i32 6
  %41 = load i32, ptr %40, align 8, !tbaa !69
  %42 = icmp eq i32 %41, -150
  br i1 %42, label %48, label %43

43:                                               ; preds = %38
  %44 = load ptr, ptr %5, align 8, !tbaa !67
  %45 = getelementptr inbounds nuw %struct.WOLFSSL_X509_STORE_CTX, ptr %44, i32 0, i32 6
  %46 = load i32, ptr %45, align 8, !tbaa !69
  %47 = icmp eq i32 %46, -151
  br i1 %47, label %48, label %50

48:                                               ; preds = %43, %38
  %49 = call i32 (ptr, ...) @printf(ptr noundef @.str.178)
  store i32 1, ptr %3, align 4
  store i32 1, ptr %7, align 4
  br label %70

50:                                               ; preds = %43, %34
  %51 = load ptr, ptr %5, align 8, !tbaa !67
  %52 = getelementptr inbounds nuw %struct.WOLFSSL_X509_STORE_CTX, ptr %51, i32 0, i32 6
  %53 = load i32, ptr %52, align 8, !tbaa !69
  %54 = icmp ne i32 %53, 0
  br i1 %54, label %55, label %61

55:                                               ; preds = %50
  %56 = call align 4 ptr @llvm.threadlocal.address.p0(ptr align 4 @myVerifyAction)
  %57 = load i32, ptr %56, align 4, !tbaa !9
  %58 = icmp eq i32 %57, 0
  br i1 %58, label %59, label %61

59:                                               ; preds = %55
  %60 = call i32 (ptr, ...) @printf(ptr noundef @.str.179)
  br label %61

61:                                               ; preds = %59, %55, %50
  %62 = call align 4 ptr @llvm.threadlocal.address.p0(ptr align 4 @myVerifyAction)
  %63 = load i32, ptr %62, align 4, !tbaa !9
  %64 = icmp eq i32 %63, 0
  br i1 %64, label %65, label %66

65:                                               ; preds = %61
  br label %68

66:                                               ; preds = %61
  %67 = load i32, ptr %4, align 4, !tbaa !9
  br label %68

68:                                               ; preds = %66, %65
  %69 = phi i32 [ 1, %65 ], [ %67, %66 ]
  store i32 %69, ptr %3, align 4
  store i32 1, ptr %7, align 4
  br label %70

70:                                               ; preds = %68, %48, %33
  call void @llvm.lifetime.end.p0(i64 80, ptr %6) #13
  %71 = load i32, ptr %3, align 4
  ret i32 %71
}